target datalayout = "e-m:e-p270:32:32-p271:32:32-p272:64:64-i64:64-i128:128-f80:128-n8:16:32:64-S128"
target triple = "x86_64-pc-linux-gnu"

%"class.glslang::TQualifier" = type <{ ptr, i64, i8, [3 x i8], i32, i32, i64, i64, i8, i8, i8, i8, i8, [3 x i8], i32, i8, i8, i8, i8, i32, ptr, i8, i8, [6 x i8] }>

; Function Attrs: mustprogress nounwind uwtable
define linkonce_odr void @_ZN7glslang11RoundToPow2IiEEvRT_i(ptr noundef nonnull align 4 dereferenceable(4) %0, i32 noundef %1) #0 comdat {
  %3 = alloca ptr, align 8
  %4 = alloca i32, align 4
  store ptr %0, ptr %3, align 8
  store i32 %1, ptr %4, align 4
  %5 = load ptr, ptr %3, align 8
  %6 = load i32, ptr %5, align 4
  %7 = load i32, ptr %4, align 4
  %8 = add nsw i32 %6, %7
  %9 = sub nsw i32 %8, 1
  %10 = load i32, ptr %4, align 4
  %11 = sub nsw i32 %10, 1
  %12 = xor i32 %11, -1
  %13 = and i32 %9, %12
  %14 = load ptr, ptr %3, align 8
  store i32 %13, ptr %14, align 4
  ret void
}

; Function Attrs: mustprogress nounwind uwtable
define noundef i32 @_ZN7glslang13TIntermediate18getMemberAlignmentERKNS_5TTypeERiS4_NS_14TLayoutPackingEb(ptr noundef nonnull align 8 dereferenceable(152) %0, ptr noundef nonnull align 4 dereferenceable(4) %1, ptr noundef nonnull align 4 dereferenceable(4) %2, i32 noundef %3, i1 noundef zeroext %4) #0 align 2 {
  %6 = alloca i32, align 4
  %7 = alloca ptr, align 8
  %8 = alloca ptr, align 8
  %9 = alloca ptr, align 8
  %10 = alloca i32, align 4
  %11 = alloca i8, align 1
  store ptr %0, ptr %7, align 8
  store ptr %1, ptr %8, align 8
  store ptr %2, ptr %9, align 8
  store i32 %3, ptr %10, align 4
  %12 = zext i1 %4 to i8
  store i8 %12, ptr %11, align 1
  %13 = load i32, ptr %10, align 4
  %14 = icmp eq i32 %13, 5
  br i1 %14, label %15, label %22

15:                                               ; preds = %5
  %16 = load ptr, ptr %7, align 8
  %17 = load ptr, ptr %8, align 8
  %18 = load ptr, ptr %9, align 8
  %19 = load i8, ptr %11, align 1
  %20 = trunc i8 %19 to i1
  %21 = call noundef i32 @_ZN7glslang13TIntermediate18getScalarAlignmentERKNS_5TTypeERiS4_b(ptr noundef nonnull align 8 dereferenceable(152) %16, ptr noundef nonnull align 4 dereferenceable(4) %17, ptr noundef nonnull align 4 dereferenceable(4) %18, i1 noundef zeroext %20)
  store i32 %21, ptr %6, align 4
  br label %30

22:                                               ; preds = %5
  %23 = load ptr, ptr %7, align 8
  %24 = load ptr, ptr %8, align 8
  %25 = load ptr, ptr %9, align 8
  %26 = load i32, ptr %10, align 4
  %27 = load i8, ptr %11, align 1
  %28 = trunc i8 %27 to i1
  %29 = call noundef i32 @_ZN7glslang13TIntermediate16getBaseAlignmentERKNS_5TTypeERiS4_NS_14TLayoutPackingEb(ptr noundef nonnull align 8 dereferenceable(152) %23, ptr noundef nonnull align 4 dereferenceable(4) %24, ptr noundef nonnull align 4 dereferenceable(4) %25, i32 noundef %26, i1 noundef zeroext %28)
  store i32 %29, ptr %6, align 4
  br label %30

30:                                               ; preds = %22, %15
  %31 = load i32, ptr %6, align 4
  ret i32 %31
}

; Function Attrs: mustprogress nounwind uwtable
define void @_ZN7glslang13TIntermediate12updateOffsetERKNS_5TTypeES3_RiS4_(ptr noundef nonnull align 8 dereferenceable(152) %0, ptr noundef nonnull align 8 dereferenceable(152) %1, ptr noundef nonnull align 4 dereferenceable(4) %2, ptr noundef nonnull align 4 dereferenceable(4) %3) #0 align 2 {
  %5 = alloca ptr, align 8
  %6 = alloca ptr, align 8
  %7 = alloca ptr, align 8
  %8 = alloca ptr, align 8
  %9 = alloca i32, align 4
  %10 = alloca i32, align 4
  %11 = alloca i32, align 4
  store ptr %0, ptr %5, align 8
  store ptr %1, ptr %6, align 8
  store ptr %2, ptr %7, align 8
  store ptr %3, ptr %8, align 8
  %12 = load ptr, ptr %6, align 8
  %13 = load ptr, ptr %12, align 8
  %14 = getelementptr inbounds ptr, ptr %13, i64 11
  %15 = load ptr, ptr %14, align 8
  %16 = call noundef nonnull align 8 dereferenceable(80) ptr %15(ptr noundef nonnull align 8 dereferenceable(152) %12)
  %17 = getelementptr inbounds %"class.glslang::TQualifier", ptr %16, i32 0, i32 1
  %18 = load i64, ptr %17, align 8
  %19 = lshr i64 %18, 60
  %20 = and i64 %19, 7
  %21 = trunc i64 %20 to i32
  store i32 %21, ptr %10, align 4
  %22 = load ptr, ptr %6, align 8
  %23 = load ptr, ptr %8, align 8
  %24 = load ptr, ptr %5, align 8
  %25 = load ptr, ptr %24, align 8
  %26 = getelementptr inbounds ptr, ptr %25, i64 11
  %27 = load ptr, ptr %26, align 8
  %28 = call noundef nonnull align 8 dereferenceable(80) ptr %27(ptr noundef nonnull align 8 dereferenceable(152) %24)
  %29 = getelementptr inbounds %"class.glslang::TQualifier", ptr %28, i32 0, i32 2
  %30 = load i8, ptr %29, align 8
  %31 = and i8 %30, 15
  %32 = zext i8 %31 to i32
  %33 = load i32, ptr %10, align 4
  %34 = icmp ne i32 %33, 0
  br i1 %34, label %35, label %38

35:                                               ; preds = %4
  %36 = load i32, ptr %10, align 4
  %37 = icmp eq i32 %36, 1
  br label %50

38:                                               ; preds = %4
  %39 = load ptr, ptr %5, align 8
  %40 = load ptr, ptr %39, align 8
  %41 = getelementptr inbounds ptr, ptr %40, i64 11
  %42 = load ptr, ptr %41, align 8
  %43 = call noundef nonnull align 8 dereferenceable(80) ptr %42(ptr noundef nonnull align 8 dereferenceable(152) %39)
  %44 = getelementptr inbounds %"class.glslang::TQualifier", ptr %43, i32 0, i32 1
  %45 = load i64, ptr %44, align 8
  %46 = lshr i64 %45, 60
  %47 = and i64 %46, 7
  %48 = trunc i64 %47 to i32
  %49 = icmp eq i32 %48, 1
  br label %50

50:                                               ; preds = %38, %35
  %51 = phi i1 [ %37, %35 ], [ %49, %38 ]
  %52 = call noundef i32 @_ZN7glslang13TIntermediate18getMemberAlignmentERKNS_5TTypeERiS4_NS_14TLayoutPackingEb(ptr noundef nonnull align 8 dereferenceable(152) %22, ptr noundef nonnull align 4 dereferenceable(4) %23, ptr noundef nonnull align 4 dereferenceable(4) %9, i32 noundef %32, i1 noundef zeroext %51)
  store i32 %52, ptr %11, align 4
  %53 = load ptr, ptr %7, align 8
  %54 = load i32, ptr %11, align 4
  call void @_ZN7glslang11RoundToPow2IiEEvRT_i(ptr noundef nonnull align 4 dereferenceable(4) %53, i32 noundef %54)
  ret void
}