; Function Attrs: mustprogress nounwind uwtable
define void @_ZN7glslang13TIntermediate12updateOffsetERKNS_5TTypeES3_RiS4_(ptr noundef nonnull align 8 dereferenceable(152) %0, ptr noundef nonnull align 8 dereferenceable(152) %1, ptr nocapture noundef nonnull align 4 dereferenceable(4) %2, ptr noundef nonnull align 4 dereferenceable(4) %3) local_unnamed_addr #0 align 2 {
  %5 = alloca i32, align 4
  %6 = load ptr, ptr %1, align 8
  %7 = getelementptr inbounds i8, ptr %6, i64 88
  %8 = load ptr, ptr %7, align 8
  %9 = tail call noundef nonnull align 8 dereferenceable(80) ptr %8(ptr noundef nonnull align 8 dereferenceable(152) %1) #18
  %10 = getelementptr inbounds i8, ptr %9, i64 8
  %11 = load i64, ptr %10, align 8
  %12 = lshr i64 %11, 60
  %13 = trunc nuw nsw i64 %12 to i32
  %14 = and i32 %13, 7
  %15 = load ptr, ptr %0, align 8
  %16 = getelementptr inbounds i8, ptr %15, i64 88
  %17 = load ptr, ptr %16, align 8
  %18 = tail call noundef nonnull align 8 dereferenceable(80) ptr %17(ptr noundef nonnull align 8 dereferenceable(152) %0) #18
  %19 = getelementptr inbounds i8, ptr %18, i64 16
  %20 = load i8, ptr %19, align 8
  %.not = icmp eq i32 %14, 0
  br i1 %.not, label %23, label %21

21:                                               ; preds = %4
  %22 = icmp eq i32 %14, 1
  br label %32

23:                                               ; preds = %4
  %24 = load ptr, ptr %0, align 8
  %25 = getelementptr inbounds i8, ptr %24, i64 88
  %26 = load ptr, ptr %25, align 8
  %27 = tail call noundef nonnull align 8 dereferenceable(80) ptr %26(ptr noundef nonnull align 8 dereferenceable(152) %0) #18
  %28 = getelementptr inbounds i8, ptr %27, i64 8
  %29 = load i64, ptr %28, align 8
  %30 = and i64 %29, 8070450532247928832
  %31 = icmp eq i64 %30, 1152921504606846976
  br label %32

32:                                               ; preds = %23, %21
  %33 = phi i1 [ %22, %21 ], [ %31, %23 ]
  %34 = and i8 %20, 15
  %35 = icmp eq i8 %34, 5
  br i1 %35, label %36, label %38

36:                                               ; preds = %32
  %37 = call noundef i32 @_ZN7glslang13TIntermediate18getScalarAlignmentERKNS_5TTypeERiS4_b(ptr noundef nonnull align 8 dereferenceable(152) %1, ptr noundef nonnull align 4 dereferenceable(4) %3, ptr noundef nonnull align 4 dereferenceable(4) %5, i1 noundef zeroext %33)
  br label %_ZN7glslang13TIntermediate18getMemberAlignmentERKNS_5TTypeERiS4_NS_14TLayoutPackingEb.exit

38:                                               ; preds = %32
  %39 = zext nneg i8 %34 to i32
  %40 = call noundef i32 @_ZN7glslang13TIntermediate16getBaseAlignmentERKNS_5TTypeERiS4_NS_14TLayoutPackingEb(ptr noundef nonnull align 8 dereferenceable(152) %1, ptr noundef nonnull align 4 dereferenceable(4) %3, ptr noundef nonnull align 4 dereferenceable(4) %5, i32 noundef %39, i1 noundef zeroext %33)
  br label %_ZN7glslang13TIntermediate18getMemberAlignmentERKNS_5TTypeERiS4_NS_14TLayoutPackingEb.exit

_ZN7glslang13TIntermediate18getMemberAlignmentERKNS_5TTypeERiS4_NS_14TLayoutPackingEb.exit: ; preds = %36, %38
  %.0.i = phi i32 [ %37, %36 ], [ %40, %38 ]
  %41 = load i32, ptr %2, align 4
  %42 = add i32 %.0.i, -1
  %43 = add i32 %42, %41
  %44 = sub i32 0, %.0.i
  %45 = and i32 %43, %44
  store i32 %45, ptr %2, align 4
  ret void
}